ClazyPlugin.so:_Z14checkSignatureNSt7__cxx1112basic_stringIcSt11char_traitsIcESaIcEEERKNS_11basic_regexIcNS_12regex_traitsIcEEEE
ClazyPlugin.so:_Z16getCaseStatementPN5clang9ParentMapEPNS_4StmtEPNS_11DeclRefExprE
ClazyPlugin.so:_Z19locForNextSemiColonN5clang14SourceLocationERKNS_13SourceManagerERKNS_11LangOptionsE
ClazyPlugin.so:_Z19replacementForQDatePN5clang4StmtERNSt7__cxx1112basic_stringIcSt11char_traitsIcESaIcEEES8_RNS_14SourceLocationERNS_11SourceRangeE
ClazyPlugin.so:_Z19warningForQComboBoxPN5clang10MemberExprERNSt7__cxx1112basic_stringIcSt11char_traitsIcESaIcEEE
ClazyPlugin.so:_Z20levenshtein_distanceRKNSt7__cxx1112basic_stringIcSt11char_traitsIcESaIcEEES6_
ClazyPlugin.so:_Z21isAllowedChainedClassRKNSt7__cxx1112basic_stringIcSt11char_traitsIcESaIcEEE
ClazyPlugin.so:_Z21replacementForQWizardNSt7__cxx1112basic_stringIcSt11char_traitsIcESaIcEEERS4_S5_
ClazyPlugin.so:_Z22isAllowedChainedMethodRKNSt7__cxx1112basic_stringIcSt11char_traitsIcESaIcEEE
ClazyPlugin.so:_Z22replacementForQProcessNSt7__cxx1112basic_stringIcSt11char_traitsIcESaIcEEERS4_S5_
ClazyPlugin.so:_Z22warningForQTextBrowserPN5clang10MemberExprERNSt7__cxx1112basic_stringIcSt11char_traitsIcESaIcEEE
ClazyPlugin.so:_Z23replacementForQComboBoxPN5clang10MemberExprENSt7__cxx1112basic_stringIcSt11char_traitsIcESaIcEEERS7_S8_
ClazyPlugin.so:_Z23replacementForQResourceNSt7__cxx1112basic_stringIcSt11char_traitsIcESaIcEEERS4_S5_
ClazyPlugin.so:_Z23warningForGraphicsViewsNSt7__cxx1112basic_stringIcSt11char_traitsIcESaIcEEERS4_
ClazyPlugin.so:_Z24getMessageForDeclWarningNSt7__cxx1112basic_stringIcSt11char_traitsIcESaIcEEERS4_
ClazyPlugin.so:_Z26replacementForQButtonGroupPN5clang10MemberExprERNSt7__cxx1112basic_stringIcSt11char_traitsIcESaIcEEES8_
ClazyPlugin.so:_Z27foundQDirDeprecatedOperatorPN5clang11DeclRefExprE
ClazyPlugin.so:_Z27isQSetDepreprecatedOperatorNSt7__cxx1112basic_stringIcSt11char_traitsIcESaIcEEES4_RS4_
ClazyPlugin.so:_Z27replacementForQSignalMapperPN5clang10MemberExprERNSt7__cxx1112basic_stringIcSt11char_traitsIcESaIcEEES8_
ClazyPlugin.so:_Z31foundQVariantDeprecatedOperatorPN5clang11DeclRefExprE
ClazyPlugin.so:_Z34replacementForQStringSplitBehaviorNSt7__cxx1112basic_stringIcSt11char_traitsIcESaIcEEERS4_S5_b
ClazyPlugin.so:_Z34replacementForQTextStreamFunctionsNSt7__cxx1112basic_stringIcSt11char_traitsIcESaIcEEERS4_S5_b
ClazyPlugin.so:_ZN10QDeleteAll9VisitStmtEPN5clang4StmtE
ClazyPlugin.so:_ZN10QDeleteAllC1ERKNSt7__cxx1112basic_stringIcSt11char_traitsIcESaIcEEEP12ClazyContext
ClazyPlugin.so:_ZN10QDeleteAllC2ERKNSt7__cxx1112basic_stringIcSt11char_traitsIcESaIcEEEP12ClazyContext
ClazyPlugin.so:_ZN10QStringArg22checkQLatin1StringCaseEPN5clang17CXXMemberCallExprE
ClazyPlugin.so:_ZN10QStringArg24checkMultiArgWarningCaseERKSt6vectorIPN5clang8CallExprESaIS3_EE
ClazyPlugin.so:_ZN10QStringArg29checkForMultiArgOpportunitiesEPN5clang17CXXMemberCallExprE
ClazyPlugin.so:_ZN10QStringArg9VisitStmtEPN5clang4StmtE
ClazyPlugin.so:_ZN10QStringArgC1ERKNSt7__cxx1112basic_stringIcSt11char_traitsIcESaIcEEEP12ClazyContext
ClazyPlugin.so:_ZN10QStringArgC2ERKNSt7__cxx1112basic_stringIcSt11char_traitsIcESaIcEEEP12ClazyContext
ClazyPlugin.so:_ZN10QtKeywords17VisitMacroExpandsERKN5clang5TokenERKNS0_11SourceRangeEPKNS0_9MacroInfoE
ClazyPlugin.so:_ZN10QtKeywordsC1ERKNSt7__cxx1112basic_stringIcSt11char_traitsIcESaIcEEEP12ClazyContext
ClazyPlugin.so:_ZN10QtKeywordsC2ERKNSt7__cxx1112basic_stringIcSt11char_traitsIcESaIcEEEP12ClazyContext
ClazyPlugin.so:_ZN10RuleOfBaseC1ERKNSt7__cxx1112basic_stringIcSt11char_traitsIcESaIcEEEP12ClazyContext
ClazyPlugin.so:_ZN10RuleOfBaseC2ERKNSt7__cxx1112basic_stringIcSt11char_traitsIcESaIcEEEP12ClazyContext
ClazyPlugin.so:_ZN11QStringLeft9VisitStmtEPN5clang4StmtE
ClazyPlugin.so:_ZN11QStringLeftC1ERKNSt7__cxx1112basic_stringIcSt11char_traitsIcESaIcEEEP12ClazyContext
ClazyPlugin.so:_ZN11QStringLeftC2ERKNSt7__cxx1112basic_stringIcSt11char_traitsIcESaIcEEEP12ClazyContext
ClazyPlugin.so:_ZN11Qt6FwdFixes23VisitInclusionDirectiveEN5clang14SourceLocationERKNS0_5TokenEN4llvm9StringRefEbNS0_15CharSourceRangeEPKNS0_9FileEntryES6_S6_PKNS0_6ModuleENS0_6SrcMgr18CharacteristicKindE
ClazyPlugin.so:_ZN11Qt6FwdFixes9VisitDeclEPN5clang4DeclE
ClazyPlugin.so:_ZN11Qt6FwdFixesC1ERKNSt7__cxx1112basic_stringIcSt11char_traitsIcESaIcEEEP12ClazyContext
ClazyPlugin.so:_ZN11Qt6FwdFixesC2ERKNSt7__cxx1112basic_stringIcSt11char_traitsIcESaIcEEEP12ClazyContext
ClazyPlugin.so:_ZN11RuleOfThree9VisitDeclEPN5clang4DeclE
ClazyPlugin.so:_ZN11RuleOfThreeC1ERKNSt7__cxx1112basic_stringIcSt11char_traitsIcESaIcEEEP12ClazyContext
ClazyPlugin.so:_ZN11RuleOfThreeC2ERKNSt7__cxx1112basic_stringIcSt11char_traitsIcESaIcEEEP12ClazyContext
ClazyPlugin.so:_ZN12CheckManager11createCheckERKNSt7__cxx1112basic_stringIcSt11char_traitsIcESaIcEEEP12ClazyContext
ClazyPlugin.so:_ZN12CheckManager12createChecksERKSt6vectorI15RegisteredCheckSaIS1_EEP12ClazyContext
ClazyPlugin.so:_ZN12CheckManager13registerCheckERK15RegisteredCheck
ClazyPlugin.so:_ZN12CheckManager13registerFixItEiRKNSt7__cxx1112basic_stringIcSt11char_traitsIcESaIcEEES7_
ClazyPlugin.so:_ZN12CheckManager14registerChecksEv
ClazyPlugin.so:_ZN12CheckManager15requestedChecksERSt6vectorINSt7__cxx1112basic_stringIcSt11char_traitsIcESaIcEEESaIS6_EEb
ClazyPlugin.so:_ZN12CheckManager20removeChecksFromListERSt6vectorI15RegisteredCheckSaIS1_EERS0_INSt7__cxx1112basic_stringIcSt11char_traitsIcESaIcEEESaISA_EE
ClazyPlugin.so:_ZN12CheckManager8instanceEv
ClazyPlugin.so:_ZN12CheckManagerC1Ev
ClazyPlugin.so:_ZN12CheckManagerC2Ev
ClazyPlugin.so:_ZN12ClazyContext22enableVisitallTypeDefsEv
ClazyPlugin.so:_ZN12ClazyContext25enablePreprocessorVisitorEv
ClazyPlugin.so:_ZN12ClazyContext28enableAccessSpecifierManagerEv
ClazyPlugin.so:_ZN12ClazyContextC1ERKN5clang16CompilerInstanceERKNSt7__cxx1112basic_stringIcSt11char_traitsIcESaIcEEESB_S9_RKSt6vectorIS9_SaIS9_EEi
ClazyPlugin.so:_ZN12ClazyContextC2ERKN5clang16CompilerInstanceERKNSt7__cxx1112basic_stringIcSt11char_traitsIcESaIcEEESB_S9_RKSt6vectorIS9_SaIS9_EEi
ClazyPlugin.so:_ZN12ClazyContextD1Ev
ClazyPlugin.so:_ZN12ClazyContextD2Ev
ClazyPlugin.so:_ZN12QDateTimeUtc9VisitStmtEPN5clang4StmtE
ClazyPlugin.so:_ZN12QDateTimeUtcC1ERKNSt7__cxx1112basic_stringIcSt11char_traitsIcESaIcEEEP12ClazyContext
ClazyPlugin.so:_ZN12QDateTimeUtcC2ERKNSt7__cxx1112basic_stringIcSt11char_traitsIcESaIcEEEP12ClazyContext
ClazyPlugin.so:_ZN12TrNonLiteral9VisitStmtEPN5clang4StmtE
ClazyPlugin.so:_ZN12TrNonLiteralC1ERKNSt7__cxx1112basic_stringIcSt11char_traitsIcESaIcEEEP12ClazyContext
ClazyPlugin.so:_ZN12TrNonLiteralC2ERKNSt7__cxx1112basic_stringIcSt11char_traitsIcESaIcEEEP12ClazyContext
ClazyPlugin.so:_ZN12UnneededCast15handleNamedCastEPN5clang16CXXNamedCastExprE
ClazyPlugin.so:_ZN12UnneededCast17handleQObjectCastEPN5clang4StmtE
ClazyPlugin.so:_ZN12UnneededCast9VisitStmtEPN5clang4StmtE
ClazyPlugin.so:_ZN12UnneededCast9maybeWarnEPN5clang4StmtEPNS0_13CXXRecordDeclES4_b
ClazyPlugin.so:_ZN12UnneededCastC1ERKNSt7__cxx1112basic_stringIcSt11char_traitsIcESaIcEEEP12ClazyContext
ClazyPlugin.so:_ZN12UnneededCastC2ERKNSt7__cxx1112basic_stringIcSt11char_traitsIcESaIcEEEP12ClazyContext
ClazyPlugin.so:_ZN13ConnectByName9VisitDeclEPN5clang4DeclE
ClazyPlugin.so:_ZN13ConnectByNameC1ERKNSt7__cxx1112basic_stringIcSt11char_traitsIcESaIcEEEP12ClazyContext
ClazyPlugin.so:_ZN13ConnectByNameC2ERKNSt7__cxx1112basic_stringIcSt11char_traitsIcESaIcEEEP12ClazyContext
ClazyPlugin.so:_ZN13DetachingBaseC1ERKNSt7__cxx1112basic_stringIcSt11char_traitsIcESaIcEEEP12ClazyContexti
ClazyPlugin.so:_ZN13DetachingBaseC2ERKNSt7__cxx1112basic_stringIcSt11char_traitsIcESaIcEEEP12ClazyContexti
ClazyPlugin.so:_ZN13FixItExporter12ConvertFixItERKN5clang9FixItHintE
ClazyPlugin.so:_ZN13FixItExporter13EndSourceFileEv
ClazyPlugin.so:_ZN13FixItExporter15BeginSourceFileERKN5clang11LangOptionsEPKNS0_12PreprocessorE
ClazyPlugin.so:_ZN13FixItExporter16HandleDiagnosticEN5clang17DiagnosticsEngine5LevelERKNS0_10DiagnosticE
ClazyPlugin.so:_ZN13FixItExporter17ConvertDiagnosticERKN5clang10DiagnosticE
ClazyPlugin.so:_ZN13FixItExporter4DiagEN5clang14SourceLocationEj
ClazyPlugin.so:_ZN13FixItExporter6ExportEv
ClazyPlugin.so:_ZN13FixItExporterC1ERN5clang17DiagnosticsEngineERNS0_13SourceManagerERKNS0_11LangOptionsERKNSt7__cxx1112basic_stringIcSt11char_traitsIcESaIcEEEb
ClazyPlugin.so:_ZN13FixItExporterC2ERN5clang17DiagnosticsEngineERNS0_13SourceManagerERKNS0_11LangOptionsERKNSt7__cxx1112basic_stringIcSt11char_traitsIcESaIcEEEb
ClazyPlugin.so:_ZN13FixItExporterD0Ev
ClazyPlugin.so:_ZN13FixItExporterD1Ev
ClazyPlugin.so:_ZN13FixItExporterD2Ev
ClazyPlugin.so:_ZN13ImplicitCasts9VisitStmtEPN5clang4StmtE
ClazyPlugin.so:_ZN13ImplicitCastsC1ERKNSt7__cxx1112basic_stringIcSt11char_traitsIcESaIcEEEP12ClazyContext
ClazyPlugin.so:_ZN13ImplicitCastsC2ERKNSt7__cxx1112basic_stringIcSt11char_traitsIcESaIcEEEP12ClazyContext
ClazyPlugin.so:_ZN13IncorrectEmit17VisitMacroExpandsERKN5clang5TokenERKNS0_11SourceRangeEPKNS0_9MacroInfoE
ClazyPlugin.so:_ZN13IncorrectEmit25checkCallSignalInsideCTOREPN5clang17CXXMemberCallExprE
ClazyPlugin.so:_ZN13IncorrectEmit9VisitStmtEPN5clang4StmtE
ClazyPlugin.so:_ZN13IncorrectEmitC1ERKNSt7__cxx1112basic_stringIcSt11char_traitsIcESaIcEEEP12ClazyContext
ClazyPlugin.so:_ZN13IncorrectEmitC2ERKNSt7__cxx1112basic_stringIcSt11char_traitsIcESaIcEEEP12ClazyContext
ClazyPlugin.so:_ZN13JniSignatures17checkFunctionCallEPN5clang4StmtE
ClazyPlugin.so:_ZN13JniSignatures20checkConstructorCallEPN5clang4StmtE
ClazyPlugin.so:_ZN13JniSignatures9VisitStmtEPN5clang4StmtE
ClazyPlugin.so:_ZN13JniSignaturesC1ERKNSt7__cxx1112basic_stringIcSt11char_traitsIcESaIcEEEP12ClazyContext
ClazyPlugin.so:_ZN13JniSignaturesC2ERKNSt7__cxx1112basic_stringIcSt11char_traitsIcESaIcEEEP12ClazyContext
ClazyPlugin.so:_ZN13RuleOfTwoSoft9VisitStmtEPN5clang4StmtE
ClazyPlugin.so:_ZN13RuleOfTwoSoftC1ERKNSt7__cxx1112basic_stringIcSt11char_traitsIcESaIcEEEP12ClazyContext
ClazyPlugin.so:_ZN13RuleOfTwoSoftC2ERKNSt7__cxx1112basic_stringIcSt11char_traitsIcESaIcEEEP12ClazyContext
ClazyPlugin.so:_ZN13VirtualSignal9VisitDeclEPN5clang4DeclE
ClazyPlugin.so:_ZN13VirtualSignalC1ERKNSt7__cxx1112basic_stringIcSt11char_traitsIcESaIcEEEP12ClazyContext
ClazyPlugin.so:_ZN13VirtualSignalC2ERKNSt7__cxx1112basic_stringIcSt11char_traitsIcESaIcEEEP12ClazyContext
ClazyPlugin.so:_ZN14BaseClassEvent9VisitDeclEPN5clang4DeclE
ClazyPlugin.so:_ZN14BaseClassEventC1ERKNSt7__cxx1112basic_stringIcSt11char_traitsIcESaIcEEEP12ClazyContext
ClazyPlugin.so:_ZN14BaseClassEventC2ERKNSt7__cxx1112basic_stringIcSt11char_traitsIcESaIcEEEP12ClazyContext
ClazyPlugin.so:_ZN14ClazyASTAction17CreateASTConsumerERN5clang16CompilerInstanceEN4llvm9StringRefE
ClazyPlugin.so:_ZN14ClazyASTAction9ParseArgsERKN5clang16CompilerInstanceERKSt6vectorINSt7__cxx1112basic_stringIcSt11char_traitsIcESaIcEEESaISA_EE
ClazyPlugin.so:_ZN14ClazyASTActionC1Ev
ClazyPlugin.so:_ZN14ClazyASTActionC2Ev
ClazyPlugin.so:_ZN14IsEmptyVSCount9VisitStmtEPN5clang4StmtE
ClazyPlugin.so:_ZN14IsEmptyVSCountC1ERKNSt7__cxx1112basic_stringIcSt11char_traitsIcESaIcEEEP12ClazyContext
ClazyPlugin.so:_ZN14IsEmptyVSCountC2ERKNSt7__cxx1112basic_stringIcSt11char_traitsIcESaIcEEEP12ClazyContext
ClazyPlugin.so:_ZN14QHashNamespace9VisitDeclEPN5clang4DeclE
ClazyPlugin.so:_ZN14QHashNamespaceC1ERKNSt7__cxx1112basic_stringIcSt11char_traitsIcESaIcEEEP12ClazyContext
ClazyPlugin.so:_ZN14QHashNamespaceC2ERKNSt7__cxx1112basic_stringIcSt11char_traitsIcESaIcEEEP12ClazyContext
ClazyPlugin.so:_ZN14QStringVarargs9VisitStmtEPN5clang4StmtE
ClazyPlugin.so:_ZN14QStringVarargsC1ERKNSt7__cxx1112basic_stringIcSt11char_traitsIcESaIcEEEP12ClazyContext
ClazyPlugin.so:_ZN14QStringVarargsC2ERKNSt7__cxx1112basic_stringIcSt11char_traitsIcESaIcEEEP12ClazyContext
ClazyPlugin.so:_ZN14Qt6HeaderFixes23VisitInclusionDirectiveEN5clang14SourceLocationERKNS0_5TokenEN4llvm9StringRefEbNS0_15CharSourceRangeEPKNS0_9FileEntryES6_S6_PKNS0_6ModuleENS0_6SrcMgr18CharacteristicKindE
ClazyPlugin.so:_ZN14Qt6HeaderFixesC1ERKNSt7__cxx1112basic_stringIcSt11char_traitsIcESaIcEEEP12ClazyContext
ClazyPlugin.so:_ZN14Qt6HeaderFixesC2ERKNSt7__cxx1112basic_stringIcSt11char_traitsIcESaIcEEEP12ClazyContext
ClazyPlugin.so:_ZN15DetachingMember9VisitStmtEPN5clang4StmtE
ClazyPlugin.so:_ZN15DetachingMemberC1ERKNSt7__cxx1112basic_stringIcSt11char_traitsIcESaIcEEEP12ClazyContext
ClazyPlugin.so:_ZN15DetachingMemberC2ERKNSt7__cxx1112basic_stringIcSt11char_traitsIcESaIcEEEP12ClazyContext
ClazyPlugin.so:_ZN15LambdaInConnect9VisitStmtEPN5clang4StmtE
ClazyPlugin.so:_ZN15LambdaInConnectC1ERKNSt7__cxx1112basic_stringIcSt11char_traitsIcESaIcEEEP12ClazyContext
ClazyPlugin.so:_ZN15LambdaInConnectC2ERKNSt7__cxx1112basic_stringIcSt11char_traitsIcESaIcEEEP12ClazyContext
ClazyPlugin.so:_ZN15MissingTypeInfo17registerQTypeInfoEPN5clang31ClassTemplateSpecializationDeclE
ClazyPlugin.so:_ZN15MissingTypeInfo9VisitDeclEPN5clang4DeclE
ClazyPlugin.so:_ZN15MissingTypeInfoC1ERKNSt7__cxx1112basic_stringIcSt11char_traitsIcESaIcEEEP12ClazyContext
ClazyPlugin.so:_ZN15MissingTypeInfoC2ERKNSt7__cxx1112basic_stringIcSt11char_traitsIcESaIcEEEP12ClazyContext
ClazyPlugin.so:_ZN15OldStyleConnect14addPrivateSlotERK11PrivateSlot
ClazyPlugin.so:_ZN15OldStyleConnect17VisitMacroExpandsERKN5clang5TokenERKNS0_11SourceRangeEPKNS0_9MacroInfoE
ClazyPlugin.so:_ZN15OldStyleConnect25signalOrSlotNameFromMacroB5cxx11EN5clang14SourceLocationE
ClazyPlugin.so:_ZN15OldStyleConnect9VisitStmtEPN5clang4StmtE
ClazyPlugin.so:_ZN15OldStyleConnectC1ERKNSt7__cxx1112basic_stringIcSt11char_traitsIcESaIcEEEP12ClazyContext
ClazyPlugin.so:_ZN15OldStyleConnectC2ERKNSt7__cxx1112basic_stringIcSt11char_traitsIcESaIcEEEP12ClazyContext
ClazyPlugin.so:_ZN15QFileInfoExists9VisitStmtEPN5clang4StmtE
ClazyPlugin.so:_ZN15QFileInfoExistsC1ERKNSt7__cxx1112basic_stringIcSt11char_traitsIcESaIcEEEP12ClazyContext
ClazyPlugin.so:_ZN15QFileInfoExistsC2ERKNSt7__cxx1112basic_stringIcSt11char_traitsIcESaIcEEEP12ClazyContext
ClazyPlugin.so:_ZN15StrictIterators14handleOperatorEPN5clang19CXXOperatorCallExprE
ClazyPlugin.so:_ZN15StrictIterators18handleImplicitCastEPN5clang16ImplicitCastExprE
ClazyPlugin.so:_ZN15StrictIterators9VisitStmtEPN5clang4StmtE
ClazyPlugin.so:_ZN15StrictIteratorsC1ERKNSt7__cxx1112basic_stringIcSt11char_traitsIcESaIcEEEP12ClazyContext
ClazyPlugin.so:_ZN15StrictIteratorsC2ERKNSt7__cxx1112basic_stringIcSt11char_traitsIcESaIcEEEP12ClazyContext
ClazyPlugin.so:_ZN15ThreadWithSlots9VisitDeclEPN5clang4DeclE
ClazyPlugin.so:_ZN15ThreadWithSlots9VisitStmtEPN5clang4StmtE
ClazyPlugin.so:_ZN15ThreadWithSlotsC1ERKNSt7__cxx1112basic_stringIcSt11char_traitsIcESaIcEEEP12ClazyContext
ClazyPlugin.so:_ZN15ThreadWithSlotsC2ERKNSt7__cxx1112basic_stringIcSt11char_traitsIcESaIcEEEP12ClazyContext
ClazyPlugin.so:_ZN15VirtualCallCtor19containsVirtualCallEPN5clang13CXXRecordDeclEPNS0_4StmtERSt6vectorIS4_SaIS4_EE
ClazyPlugin.so:_ZN15VirtualCallCtor9VisitDeclEPN5clang4DeclE
ClazyPlugin.so:_ZN15VirtualCallCtorC1ERKNSt7__cxx1112basic_stringIcSt11char_traitsIcESaIcEEEP12ClazyContext
ClazyPlugin.so:_ZN15VirtualCallCtorC2ERKNSt7__cxx1112basic_stringIcSt11char_traitsIcESaIcEEEP12ClazyContext
ClazyPlugin.so:_ZN15WrongQEventCast9VisitStmtEPN5clang4StmtE
ClazyPlugin.so:_ZN15WrongQEventCastC1ERKNSt7__cxx1112basic_stringIcSt11char_traitsIcESaIcEEEP12ClazyContext
ClazyPlugin.so:_ZN15WrongQEventCastC2ERKNSt7__cxx1112basic_stringIcSt11char_traitsIcESaIcEEEP12ClazyContext
ClazyPlugin.so:_ZN16ClazyASTConsumer21HandleTranslationUnitERN5clang10ASTContextE
ClazyPlugin.so:_ZN16ClazyASTConsumer8addCheckERKSt4pairIP9CheckBase15RegisteredCheckE
ClazyPlugin.so:_ZN16ClazyASTConsumer9VisitDeclEPN5clang4DeclE
ClazyPlugin.so:_ZN16ClazyASTConsumer9VisitStmtEPN5clang4StmtE
ClazyPlugin.so:_ZN16ClazyASTConsumerC1EP12ClazyContext
ClazyPlugin.so:_ZN16ClazyASTConsumerC2EP12ClazyContext
ClazyPlugin.so:_ZN16ClazyASTConsumerD0Ev
ClazyPlugin.so:_ZN16ClazyASTConsumerD1Ev
ClazyPlugin.so:_ZN16ClazyASTConsumerD2Ev
ClazyPlugin.so:_ZN16ConnectNonSignal9VisitStmtEPN5clang4StmtE
ClazyPlugin.so:_ZN16ConnectNonSignalC1ERKNSt7__cxx1112basic_stringIcSt11char_traitsIcESaIcEEEP12ClazyContext
ClazyPlugin.so:_ZN16ConnectNonSignalC2ERKNSt7__cxx1112basic_stringIcSt11char_traitsIcESaIcEEEP12ClazyContext
ClazyPlugin.so:_ZN16IfndefDefineTypo10VisitEndifEN5clang14SourceLocationES1_
ClazyPlugin.so:_ZN16IfndefDefineTypo10VisitIfdefEN5clang14SourceLocationERKNS0_5TokenE
ClazyPlugin.so:_ZN16IfndefDefineTypo11VisitIfndefEN5clang14SourceLocationERKNS0_5TokenE
ClazyPlugin.so:_ZN16IfndefDefineTypo12VisitDefinedERKN5clang5TokenERKNS0_11SourceRangeE
ClazyPlugin.so:_ZN16IfndefDefineTypo17VisitMacroDefinedERKN5clang5TokenE
ClazyPlugin.so:_ZN16IfndefDefineTypo7VisitIfEN5clang14SourceLocationENS0_11SourceRangeENS0_11PPCallbacks18ConditionValueKindE
ClazyPlugin.so:_ZN16IfndefDefineTypo9VisitElifEN5clang14SourceLocationENS0_11SourceRangeENS0_11PPCallbacks18ConditionValueKindES1_
ClazyPlugin.so:_ZN16IfndefDefineTypo9VisitElseEN5clang14SourceLocationES1_
ClazyPlugin.so:_ZN16IfndefDefineTypo9maybeWarnERKNSt7__cxx1112basic_stringIcSt11char_traitsIcESaIcEEEN5clang14SourceLocationE
ClazyPlugin.so:_ZN16IfndefDefineTypoC1ERKNSt7__cxx1112basic_stringIcSt11char_traitsIcESaIcEEEP12ClazyContext
ClazyPlugin.so:_ZN16IfndefDefineTypoC2ERKNSt7__cxx1112basic_stringIcSt11char_traitsIcESaIcEEEP12ClazyContext
ClazyPlugin.so:_ZN16InefficientQListC1ERKNSt7__cxx1112basic_stringIcSt11char_traitsIcESaIcEEEP12ClazyContext
ClazyPlugin.so:_ZN16InefficientQListC2ERKNSt7__cxx1112basic_stringIcSt11char_traitsIcESaIcEEEP12ClazyContext
ClazyPlugin.so:_ZN16OverloadedSignal9VisitDeclEPN5clang4DeclE
ClazyPlugin.so:_ZN16OverloadedSignalC1ERKNSt7__cxx1112basic_stringIcSt11char_traitsIcESaIcEEEP12ClazyContext
ClazyPlugin.so:_ZN16OverloadedSignalC2ERKNSt7__cxx1112basic_stringIcSt11char_traitsIcESaIcEEEP12ClazyContext
ClazyPlugin.so:_ZN16OverriddenSignal9VisitDeclEPN5clang4DeclE
ClazyPlugin.so:_ZN16OverriddenSignalC1ERKNSt7__cxx1112basic_stringIcSt11char_traitsIcESaIcEEEP12ClazyContext
ClazyPlugin.so:_ZN16OverriddenSignalC2ERKNSt7__cxx1112basic_stringIcSt11char_traitsIcESaIcEEEP12ClazyContext
ClazyPlugin.so:_ZN17Connect3ArgLambda12processQMenuEPN5clang12FunctionDeclEPNS0_4StmtE
ClazyPlugin.so:_ZN17Connect3ArgLambda13processQTimerEPN5clang12FunctionDeclEPNS0_4StmtE
ClazyPlugin.so:_ZN17Connect3ArgLambda9VisitStmtEPN5clang4StmtE
ClazyPlugin.so:_ZN17Connect3ArgLambdaC1ERKNSt7__cxx1112basic_stringIcSt11char_traitsIcESaIcEEEP12ClazyContext
ClazyPlugin.so:_ZN17Connect3ArgLambdaC2ERKNSt7__cxx1112basic_stringIcSt11char_traitsIcESaIcEEEP12ClazyContext
ClazyPlugin.so:_ZN17ConstSignalOrSlot9VisitDeclEPN5clang4DeclE
ClazyPlugin.so:_ZN17ConstSignalOrSlot9VisitStmtEPN5clang4StmtE
ClazyPlugin.so:_ZN17ConstSignalOrSlotC1ERKNSt7__cxx1112basic_stringIcSt11char_traitsIcESaIcEEEP12ClazyContext
ClazyPlugin.so:_ZN17ConstSignalOrSlotC2ERKNSt7__cxx1112basic_stringIcSt11char_traitsIcESaIcEEEP12ClazyContext
ClazyPlugin.so:_ZN17FunctionArgsByRef15processFunctionEPN5clang12FunctionDeclE
ClazyPlugin.so:_ZN17FunctionArgsByRef17shouldIgnoreClassEPN5clang13CXXRecordDeclE
ClazyPlugin.so:_ZN17FunctionArgsByRef20shouldIgnoreFunctionEPN5clang12FunctionDeclE
ClazyPlugin.so:_ZN17FunctionArgsByRef20shouldIgnoreOperatorEPN5clang12FunctionDeclE
ClazyPlugin.so:_ZN17FunctionArgsByRef5fixitEPKN5clang11ParmVarDeclEN5clazy22QualTypeClassificationE
ClazyPlugin.so:_ZN17FunctionArgsByRef9VisitDeclEPN5clang4DeclE
ClazyPlugin.so:_ZN17FunctionArgsByRef9VisitStmtEPN5clang4StmtE
ClazyPlugin.so:_ZN17FunctionArgsByRef9addFixitsERSt6vectorIN5clang9FixItHintESaIS2_EEPNS1_12FunctionDeclEj
ClazyPlugin.so:_ZN17FunctionArgsByRefC1ERKNSt7__cxx1112basic_stringIcSt11char_traitsIcESaIcEEEP12ClazyContext
ClazyPlugin.so:_ZN17FunctionArgsByRefC2ERKNSt7__cxx1112basic_stringIcSt11char_traitsIcESaIcEEEP12ClazyContext
ClazyPlugin.so:_ZN17QColorFromLiteral19registerASTMatchersERN5clang12ast_matchers11MatchFinderE
ClazyPlugin.so:_ZN17QColorFromLiteral9VisitStmtEPN5clang4StmtE
ClazyPlugin.so:_ZN17QColorFromLiteralC1ERKNSt7__cxx1112basic_stringIcSt11char_traitsIcESaIcEEEP12ClazyContext
ClazyPlugin.so:_ZN17QColorFromLiteralC2ERKNSt7__cxx1112basic_stringIcSt11char_traitsIcESaIcEEEP12ClazyContext
ClazyPlugin.so:_ZN17QColorFromLiteralD0Ev
ClazyPlugin.so:_ZN17QColorFromLiteralD1Ev
ClazyPlugin.so:_ZN17QColorFromLiteralD2Ev
ClazyPlugin.so:_ZN17Qt6QHashSignature12fixitReplaceEPN5clang12FunctionDeclEbb
ClazyPlugin.so:_ZN17Qt6QHashSignature9VisitDeclEPN5clang4DeclE
ClazyPlugin.so:_ZN17Qt6QHashSignature9VisitStmtEPN5clang4StmtE
ClazyPlugin.so:_ZN17Qt6QHashSignatureC1ERKNSt7__cxx1112basic_stringIcSt11char_traitsIcESaIcEEEP12ClazyContext
ClazyPlugin.so:_ZN17Qt6QHashSignatureC2ERKNSt7__cxx1112basic_stringIcSt11char_traitsIcESaIcEEEP12ClazyContext
ClazyPlugin.so:_ZN17ReserveCandidates24registerReserveStatementEPN5clang4StmtE
ClazyPlugin.so:_ZN17ReserveCandidates9VisitStmtEPN5clang4StmtE
ClazyPlugin.so:_ZN17ReserveCandidatesC1ERKNSt7__cxx1112basic_stringIcSt11char_traitsIcESaIcEEEP12ClazyContext
ClazyPlugin.so:_ZN17ReserveCandidatesC2ERKNSt7__cxx1112basic_stringIcSt11char_traitsIcESaIcEEEP12ClazyContext
ClazyPlugin.so:_ZN17SkippedBaseMethod9VisitStmtEPN5clang4StmtE
ClazyPlugin.so:_ZN17SkippedBaseMethodC1ERKNSt7__cxx1112basic_stringIcSt11char_traitsIcESaIcEEEP12ClazyContext
ClazyPlugin.so:_ZN17SkippedBaseMethodC2ERKNSt7__cxx1112basic_stringIcSt11char_traitsIcESaIcEEEP12ClazyContext
ClazyPlugin.so:_ZN17TemporaryIterator9VisitStmtEPN5clang4StmtE
ClazyPlugin.so:_ZN17TemporaryIteratorC1ERKNSt7__cxx1112basic_stringIcSt11char_traitsIcESaIcEEEP12ClazyContext
ClazyPlugin.so:_ZN17TemporaryIteratorC2ERKNSt7__cxx1112basic_stringIcSt11char_traitsIcESaIcEEEP12ClazyContext
ClazyPlugin.so:_ZN17UseChronoInQTimer4warnEPKN5clang4StmtEi
ClazyPlugin.so:_ZN17UseChronoInQTimer9VisitStmtEPN5clang4StmtE
ClazyPlugin.so:_ZN17UseChronoInQTimerC1ERKNSt7__cxx1112basic_stringIcSt11char_traitsIcESaIcEEEP12ClazyContext
ClazyPlugin.so:_ZN17UseChronoInQTimerC2ERKNSt7__cxx1112basic_stringIcSt11char_traitsIcESaIcEEEP12ClazyContext
ClazyPlugin.so:_ZN18DetachingTemporary9VisitStmtEPN5clang4StmtE
ClazyPlugin.so:_ZN18DetachingTemporaryC1ERKNSt7__cxx1112basic_stringIcSt11char_traitsIcESaIcEEEP12ClazyContext
ClazyPlugin.so:_ZN18DetachingTemporaryC2ERKNSt7__cxx1112basic_stringIcSt11char_traitsIcESaIcEEEP12ClazyContext
ClazyPlugin.so:_ZN18InstallEventFilter9VisitStmtEPN5clang4StmtE
ClazyPlugin.so:_ZN18InstallEventFilterC1ERKNSt7__cxx1112basic_stringIcSt11char_traitsIcESaIcEEEP12ClazyContext
ClazyPlugin.so:_ZN18InstallEventFilterC2ERKNSt7__cxx1112basic_stringIcSt11char_traitsIcESaIcEEEP12ClazyContext
ClazyPlugin.so:_ZN18NonPodGlobalStatic9VisitStmtEPN5clang4StmtE
ClazyPlugin.so:_ZN18NonPodGlobalStaticC1ERKNSt7__cxx1112basic_stringIcSt11char_traitsIcESaIcEEEP12ClazyContext
ClazyPlugin.so:_ZN18NonPodGlobalStaticC2ERKNSt7__cxx1112basic_stringIcSt11char_traitsIcESaIcEEEP12ClazyContext
ClazyPlugin.so:_ZN18QMapWithPointerKey9VisitDeclEPN5clang4DeclE
ClazyPlugin.so:_ZN18QMapWithPointerKeyC1ERKNSt7__cxx1112basic_stringIcSt11char_traitsIcESaIcEEEP12ClazyContext
ClazyPlugin.so:_ZN18QMapWithPointerKeyC2ERKNSt7__cxx1112basic_stringIcSt11char_traitsIcESaIcEEEP12ClazyContext
ClazyPlugin.so:_ZN18QStringAllocations15fixItRawLiteralEPN5clang13StringLiteralERKNSt7__cxx1112basic_stringIcSt11char_traitsIcESaIcEEE
ClazyPlugin.so:_ZN18QStringAllocations15qlatin1CtorExprEPN5clang4StmtERPNS0_19ConditionalOperatorE
ClazyPlugin.so:_ZN18QStringAllocations16maybeEmitWarningEN5clang14SourceLocationENSt7__cxx1112basic_stringIcSt11char_traitsIcESaIcEEESt6vectorINS0_9FixItHintESaIS9_EE
ClazyPlugin.so:_ZN18QStringAllocations17VisitOperatorCallEPN5clang4StmtE
ClazyPlugin.so:_ZN18QStringAllocations21VisitFromLatin1OrUtf8EPN5clang4StmtE
ClazyPlugin.so:_ZN18QStringAllocations24fixItReplaceWordWithWordEPN5clang4StmtERKNSt7__cxx1112basic_stringIcSt11char_traitsIcESaIcEEESA_
ClazyPlugin.so:_ZN18QStringAllocations32VisitAssignOperatorQLatin1StringEPN5clang4StmtE
ClazyPlugin.so:_ZN18QStringAllocations32fixItReplaceFromLatin1OrFromUtf8EPN5clang8CallExprE12FromFunction
ClazyPlugin.so:_ZN18QStringAllocations33fixItReplaceWordWithWordInTernaryEPN5clang19ConditionalOperatorE
ClazyPlugin.so:_ZN18QStringAllocations9VisitCtorEPN5clang16CXXConstructExprE
ClazyPlugin.so:_ZN18QStringAllocations9VisitCtorEPN5clang4StmtE
ClazyPlugin.so:_ZN18QStringAllocations9VisitStmtEPN5clang4StmtE
ClazyPlugin.so:_ZN18QStringAllocationsC1ERKNSt7__cxx1112basic_stringIcSt11char_traitsIcESaIcEEEP12ClazyContext
ClazyPlugin.so:_ZN18QStringAllocationsC2ERKNSt7__cxx1112basic_stringIcSt11char_traitsIcESaIcEEEP12ClazyContext
ClazyPlugin.so:_ZN18SuppressionManagerC1Ev
ClazyPlugin.so:_ZN18SuppressionManagerC2Ev
ClazyPlugin.so:_ZN18WritingToTemporary9VisitStmtEPN5clang4StmtE
ClazyPlugin.so:_ZN18WritingToTemporaryC1ERKNSt7__cxx1112basic_stringIcSt11char_traitsIcESaIcEEEP12ClazyContext
ClazyPlugin.so:_ZN18WritingToTemporaryC2ERKNSt7__cxx1112basic_stringIcSt11char_traitsIcESaIcEEEP12ClazyContext
ClazyPlugin.so:_ZN18WrongQGlobalStatic9VisitStmtEPN5clang4StmtE
ClazyPlugin.so:_ZN18WrongQGlobalStaticC1ERKNSt7__cxx1112basic_stringIcSt11char_traitsIcESaIcEEEP12ClazyContext
ClazyPlugin.so:_ZN18WrongQGlobalStaticC2ERKNSt7__cxx1112basic_stringIcSt11char_traitsIcESaIcEEEP12ClazyContext
ClazyPlugin.so:_ZN19ContainerInsideLoop9VisitStmtEPN5clang4StmtE
ClazyPlugin.so:_ZN19ContainerInsideLoopC1ERKNSt7__cxx1112basic_stringIcSt11char_traitsIcESaIcEEEP12ClazyContext
ClazyPlugin.so:_ZN19ContainerInsideLoopC2ERKNSt7__cxx1112basic_stringIcSt11char_traitsIcESaIcEEEP12ClazyContext
ClazyPlugin.so:_ZN19CopyablePolymorphic6fixitsEPN5clang13CXXRecordDeclE
ClazyPlugin.so:_ZN19CopyablePolymorphic9VisitDeclEPN5clang4DeclE
ClazyPlugin.so:_ZN19CopyablePolymorphicC1ERKNSt7__cxx1112basic_stringIcSt11char_traitsIcESaIcEEEP12ClazyContext
ClazyPlugin.so:_ZN19CopyablePolymorphicC2ERKNSt7__cxx1112basic_stringIcSt11char_traitsIcESaIcEEEP12ClazyContext
ClazyPlugin.so:_ZN19EmptyQStringliteral9VisitStmtEPN5clang4StmtE
ClazyPlugin.so:_ZN19EmptyQStringliteralC1ERKNSt7__cxx1112basic_stringIcSt11char_traitsIcESaIcEEEP12ClazyContext
ClazyPlugin.so:_ZN19EmptyQStringliteralC2ERKNSt7__cxx1112basic_stringIcSt11char_traitsIcESaIcEEEP12ClazyContext
ClazyPlugin.so:_ZN19FunctionArgsByValue15processFunctionEPN5clang12FunctionDeclE
ClazyPlugin.so:_ZN19FunctionArgsByValue17shouldIgnoreClassEPN5clang13CXXRecordDeclE
ClazyPlugin.so:_ZN19FunctionArgsByValue20shouldIgnoreFunctionEPN5clang12FunctionDeclE
ClazyPlugin.so:_ZN19FunctionArgsByValue20shouldIgnoreOperatorEPN5clang12FunctionDeclE
ClazyPlugin.so:_ZN19FunctionArgsByValue5fixitEPN5clang12FunctionDeclEPKNS0_11ParmVarDeclEN5clazy22QualTypeClassificationE
ClazyPlugin.so:_ZN19FunctionArgsByValue9VisitDeclEPN5clang4DeclE
ClazyPlugin.so:_ZN19FunctionArgsByValue9VisitStmtEPN5clang4StmtE
ClazyPlugin.so:_ZN19FunctionArgsByValueC1ERKNSt7__cxx1112basic_stringIcSt11char_traitsIcESaIcEEEP12ClazyContext
ClazyPlugin.so:_ZN19FunctionArgsByValueC2ERKNSt7__cxx1112basic_stringIcSt11char_traitsIcESaIcEEEP12ClazyContext
ClazyPlugin.so:_ZN19MissingQObjectMacro16registerQ_OBJECTEN5clang14SourceLocationE
ClazyPlugin.so:_ZN19MissingQObjectMacro17VisitMacroExpandsERKN5clang5TokenERKNS0_11SourceRangeEPKNS0_9MacroInfoE
ClazyPlugin.so:_ZN19MissingQObjectMacro9VisitDeclEPN5clang4DeclE
ClazyPlugin.so:_ZN19MissingQObjectMacroC1ERKNSt7__cxx1112basic_stringIcSt11char_traitsIcESaIcEEEP12ClazyContext
ClazyPlugin.so:_ZN19MissingQObjectMacroC2ERKNSt7__cxx1112basic_stringIcSt11char_traitsIcESaIcEEEP12ClazyContext
ClazyPlugin.so:_ZN19MutableContainerKey9VisitDeclEPN5clang4DeclE
ClazyPlugin.so:_ZN19MutableContainerKeyC1ERKNSt7__cxx1112basic_stringIcSt11char_traitsIcESaIcEEEP12ClazyContext
ClazyPlugin.so:_ZN19MutableContainerKeyC2ERKNSt7__cxx1112basic_stringIcSt11char_traitsIcESaIcEEEP12ClazyContext
ClazyPlugin.so:_ZN19PreProcessorVisitor12MacroExpandsERKN5clang5TokenERKNS0_15MacroDefinitionENS0_11SourceRangeEPKNS0_9MacroArgsE
ClazyPlugin.so:_ZN19PreProcessorVisitor15updateQtVersionEv
ClazyPlugin.so:_ZN19PreProcessorVisitor18InclusionDirectiveEN5clang14SourceLocationERKNS0_5TokenEN4llvm9StringRefEbNS0_15CharSourceRangeEPKNS0_9FileEntryES6_S6_PKNS0_6ModuleENS0_6SrcMgr18CharacteristicKindE
ClazyPlugin.so:_ZN19PreProcessorVisitor22handleQtNamespaceMacroEN5clang14SourceLocationEN4llvm9StringRefE
ClazyPlugin.so:_ZN19PreProcessorVisitor26isBetweenQtNamespaceMacrosEN5clang14SourceLocationE
ClazyPlugin.so:_ZN19PreProcessorVisitorC1ERKN5clang16CompilerInstanceE
ClazyPlugin.so:_ZN19PreProcessorVisitorC2ERKN5clang16CompilerInstanceE
ClazyPlugin.so:_ZN19Qt4QStringFromArray11fixCtorCallEPN5clang16CXXConstructExprE
ClazyPlugin.so:_ZN19Qt4QStringFromArray15fixOperatorCallEPN5clang19CXXOperatorCallExprE
ClazyPlugin.so:_ZN19Qt4QStringFromArray17fixMethodCallCallEPN5clang17CXXMemberCallExprE
ClazyPlugin.so:_ZN19Qt4QStringFromArray21fixitInsertFromLatin1EPN5clang16CXXConstructExprE
ClazyPlugin.so:_ZN19Qt4QStringFromArray26fixitReplaceWithFromLatin1EPN5clang16CXXConstructExprE
ClazyPlugin.so:_ZN19Qt4QStringFromArray9VisitStmtEPN5clang4StmtE
ClazyPlugin.so:_ZN19Qt4QStringFromArrayC1ERKNSt7__cxx1112basic_stringIcSt11char_traitsIcESaIcEEEP12ClazyContext
ClazyPlugin.so:_ZN19Qt4QStringFromArrayC2ERKNSt7__cxx1112basic_stringIcSt11char_traitsIcESaIcEEEP12ClazyContext
ClazyPlugin.so:_ZN19StringRefCandidates12processCase1EPN5clang17CXXMemberCallExprE
ClazyPlugin.so:_ZN19StringRefCandidates12processCase2EPN5clang8CallExprE
ClazyPlugin.so:_ZN19StringRefCandidates5fixitEPN5clang17CXXMemberCallExprE
ClazyPlugin.so:_ZN19StringRefCandidates9VisitStmtEPN5clang4StmtE
ClazyPlugin.so:_ZN19StringRefCandidatesC1ERKNSt7__cxx1112basic_stringIcSt11char_traitsIcESaIcEEEP12ClazyContext
ClazyPlugin.so:_ZN19StringRefCandidatesC2ERKNSt7__cxx1112basic_stringIcSt11char_traitsIcESaIcEEEP12ClazyContext
ClazyPlugin.so:_ZN20ConnectNotNormalized11handleQ_ARGEPN5clang16CXXConstructExprE
ClazyPlugin.so:_ZN20ConnectNotNormalized13handleConnectEPN5clang8CallExprE
ClazyPlugin.so:_ZN20ConnectNotNormalized9VisitStmtEPN5clang4StmtE
ClazyPlugin.so:_ZN20ConnectNotNormalizedC1ERKNSt7__cxx1112basic_stringIcSt11char_traitsIcESaIcEEEP12ClazyContext
ClazyPlugin.so:_ZN20ConnectNotNormalizedC2ERKNSt7__cxx1112basic_stringIcSt11char_traitsIcESaIcEEEP12ClazyContext
ClazyPlugin.so:_ZN20ContainerAntiPattern10handleLoopEPN5clang4StmtE
ClazyPlugin.so:_ZN20ContainerAntiPattern9VisitQSetEPN5clang4StmtE
ClazyPlugin.so:_ZN20ContainerAntiPattern9VisitStmtEPN5clang4StmtE
ClazyPlugin.so:_ZN20ContainerAntiPatternC1ERKNSt7__cxx1112basic_stringIcSt11char_traitsIcESaIcEEEP12ClazyContext
ClazyPlugin.so:_ZN20ContainerAntiPatternC2ERKNSt7__cxx1112basic_stringIcSt11char_traitsIcESaIcEEEP12ClazyContext
ClazyPlugin.so:_ZN20InefficientQListBase9VisitDeclEPN5clang4DeclE
ClazyPlugin.so:_ZN20InefficientQListBaseC1ERKNSt7__cxx1112basic_stringIcSt11char_traitsIcESaIcEEEP12ClazyContexti
ClazyPlugin.so:_ZN20InefficientQListBaseC2ERKNSt7__cxx1112basic_stringIcSt11char_traitsIcESaIcEEEP12ClazyContexti
ClazyPlugin.so:_ZN20InefficientQListSoftC1ERKNSt7__cxx1112basic_stringIcSt11char_traitsIcESaIcEEEP12ClazyContext
ClazyPlugin.so:_ZN20InefficientQListSoftC2ERKNSt7__cxx1112basic_stringIcSt11char_traitsIcESaIcEEEP12ClazyContext
ClazyPlugin.so:_ZN20LowercaseQMlTypeName9VisitStmtEPN5clang4StmtE
ClazyPlugin.so:_ZN20LowercaseQMlTypeNameC1ERKNSt7__cxx1112basic_stringIcSt11char_traitsIcESaIcEEEP12ClazyContext
ClazyPlugin.so:_ZN20LowercaseQMlTypeNameC2ERKNSt7__cxx1112basic_stringIcSt11char_traitsIcESaIcEEEP12ClazyContext
ClazyPlugin.so:_ZN21AssertWithSideEffects9VisitStmtEPN5clang4StmtE
ClazyPlugin.so:_ZN21AssertWithSideEffectsC1ERKNSt7__cxx1112basic_stringIcSt11char_traitsIcESaIcEEEP12ClazyContext
ClazyPlugin.so:_ZN21AssertWithSideEffectsC2ERKNSt7__cxx1112basic_stringIcSt11char_traitsIcESaIcEEEP12ClazyContext
ClazyPlugin.so:_ZN21ChildEventQObjectCast9VisitDeclEPN5clang4DeclE
ClazyPlugin.so:_ZN21ChildEventQObjectCastC1ERKNSt7__cxx1112basic_stringIcSt11char_traitsIcESaIcEEEP12ClazyContext
ClazyPlugin.so:_ZN21ChildEventQObjectCastC2ERKNSt7__cxx1112basic_stringIcSt11char_traitsIcESaIcEEEP12ClazyContext
ClazyPlugin.so:_ZN21MiniASTDumperConsumer21HandleTranslationUnitERN5clang10ASTContextE
ClazyPlugin.so:_ZN21MiniASTDumperConsumer9VisitDeclEPN5clang4DeclE
ClazyPlugin.so:_ZN21MiniASTDumperConsumer9VisitStmtEPN5clang4StmtE
ClazyPlugin.so:_ZN21MiniASTDumperConsumerC1Ev
ClazyPlugin.so:_ZN21MiniASTDumperConsumerC2Ev
ClazyPlugin.so:_ZN21MiniASTDumperConsumerD0Ev
ClazyPlugin.so:_ZN21MiniASTDumperConsumerD1Ev
ClazyPlugin.so:_ZN21MiniASTDumperConsumerD2Ev
ClazyPlugin.so:_ZN21QLatin1StringNonAscii9VisitStmtEPN5clang4StmtE
ClazyPlugin.so:_ZN21QLatin1StringNonAsciiC1ERKNSt7__cxx1112basic_stringIcSt11char_traitsIcESaIcEEEP12ClazyContext
ClazyPlugin.so:_ZN21QLatin1StringNonAsciiC2ERKNSt7__cxx1112basic_stringIcSt11char_traitsIcESaIcEEEP12ClazyContext
ClazyPlugin.so:_ZN21QPropertyTypeMismatch10VisitFieldERKN5clang9FieldDeclE
ClazyPlugin.so:_ZN21QPropertyTypeMismatch11VisitMethodERKN5clang13CXXMethodDeclE
ClazyPlugin.so:_ZN21QPropertyTypeMismatch12VisitTypedefEPKN5clang15TypedefNameDeclE
ClazyPlugin.so:_ZN21QPropertyTypeMismatch17VisitMacroExpandsERKN5clang5TokenERKNS0_11SourceRangeEPKNS0_9MacroInfoE
ClazyPlugin.so:_ZN21QPropertyTypeMismatch25checkFieldAgainstPropertyERKNS_8PropertyERKN5clang9FieldDeclERKNSt7__cxx1112basic_stringIcSt11char_traitsIcESaIcEEE
ClazyPlugin.so:_ZN21QPropertyTypeMismatch26checkMethodAgainstPropertyERKNS_8PropertyERKN5clang13CXXMethodDeclERKNSt7__cxx1112basic_stringIcSt11char_traitsIcESaIcEEE
ClazyPlugin.so:_ZN21QPropertyTypeMismatch9VisitDeclEPN5clang4DeclE
ClazyPlugin.so:_ZN21QPropertyTypeMismatchC1ERKNSt7__cxx1112basic_stringIcSt11char_traitsIcESaIcEEEP12ClazyContext
ClazyPlugin.so:_ZN21QPropertyTypeMismatchC2ERKNSt7__cxx1112basic_stringIcSt11char_traitsIcESaIcEEEP12ClazyContext
ClazyPlugin.so:_ZN21Qt6DeprecatedAPIFixes16findPathArgumentB5cxx11EPN5clang4StmtEbi
ClazyPlugin.so:_ZN21Qt6DeprecatedAPIFixes17VisitMacroExpandsERKN5clang5TokenERKNS0_11SourceRangeEPKNS0_9MacroInfoE
ClazyPlugin.so:_ZN21Qt6DeprecatedAPIFixes23buildReplacementforQDirB5cxx11EPN5clang4StmtEPNS0_11DeclRefExprE
ClazyPlugin.so:_ZN21Qt6DeprecatedAPIFixes24fixForDeprecatedOperatorEPN5clang4StmtENSt7__cxx1112basic_stringIcSt11char_traitsIcESaIcEEE
ClazyPlugin.so:_ZN21Qt6DeprecatedAPIFixes27buildReplacementForQVariantB5cxx11EPN5clang4StmtEPNS0_11DeclRefExprES4_
ClazyPlugin.so:_ZN21Qt6DeprecatedAPIFixes9VisitDeclEPN5clang4DeclE
ClazyPlugin.so:_ZN21Qt6DeprecatedAPIFixes9VisitStmtEPN5clang4StmtE
ClazyPlugin.so:_ZN21Qt6DeprecatedAPIFixesC1ERKNSt7__cxx1112basic_stringIcSt11char_traitsIcESaIcEEEP12ClazyContext
ClazyPlugin.so:_ZN21Qt6DeprecatedAPIFixesC2ERKNSt7__cxx1112basic_stringIcSt11char_traitsIcESaIcEEEP12ClazyContext
ClazyPlugin.so:_ZN21SignalWithReturnValue9VisitDeclEPN5clang4DeclE
ClazyPlugin.so:_ZN21SignalWithReturnValueC1ERKNSt7__cxx1112basic_stringIcSt11char_traitsIcESaIcEEEP12ClazyContext
ClazyPlugin.so:_ZN21SignalWithReturnValueC2ERKNSt7__cxx1112basic_stringIcSt11char_traitsIcESaIcEEEP12ClazyContext
ClazyPlugin.so:_ZN22AccessSpecifierManager16VisitDeclarationEPN5clang4DeclE
ClazyPlugin.so:_ZN22AccessSpecifierManager23entryForClassDefinitionEPN5clang13CXXRecordDeclE
ClazyPlugin.so:_ZN22AccessSpecifierManagerC1ERKN5clang16CompilerInstanceE
ClazyPlugin.so:_ZN22AccessSpecifierManagerC2ERKN5clang16CompilerInstanceE
ClazyPlugin.so:_ZN22FullyQualifiedMocTypes16handleQ_PROPERTYEPN5clang13CXXMethodDeclE
ClazyPlugin.so:_ZN22FullyQualifiedMocTypes16registerQ_GADGETEN5clang14SourceLocationE
ClazyPlugin.so:_ZN22FullyQualifiedMocTypes17VisitMacroExpandsERKN5clang5TokenERKNS0_11SourceRangeEPKNS0_9MacroInfoE
ClazyPlugin.so:_ZN22FullyQualifiedMocTypes9VisitDeclEPN5clang4DeclE
ClazyPlugin.so:_ZN22FullyQualifiedMocTypesC1ERKNSt7__cxx1112basic_stringIcSt11char_traitsIcESaIcEEEP12ClazyContext
ClazyPlugin.so:_ZN22FullyQualifiedMocTypesC2ERKNSt7__cxx1112basic_stringIcSt11char_traitsIcESaIcEEEP12ClazyContext
ClazyPlugin.so:_ZN22GlobalConstCharPointer9VisitDeclEPN5clang4DeclE
ClazyPlugin.so:_ZN22GlobalConstCharPointerC1ERKNSt7__cxx1112basic_stringIcSt11char_traitsIcESaIcEEEP12ClazyContext
ClazyPlugin.so:_ZN22GlobalConstCharPointerC2ERKNSt7__cxx1112basic_stringIcSt11char_traitsIcESaIcEEEP12ClazyContext
ClazyPlugin.so:_ZN22LambdaUniqueConnection9VisitStmtEPN5clang4StmtE
ClazyPlugin.so:_ZN22LambdaUniqueConnectionC1ERKNSt7__cxx1112basic_stringIcSt11char_traitsIcESaIcEEEP12ClazyContext
ClazyPlugin.so:_ZN22LambdaUniqueConnectionC2ERKNSt7__cxx1112basic_stringIcSt11char_traitsIcESaIcEEEP12ClazyContext
ClazyPlugin.so:_ZN22MiniAstDumperASTAction17CreateASTConsumerERN5clang16CompilerInstanceEN4llvm9StringRefE
ClazyPlugin.so:_ZN22MiniAstDumperASTAction9ParseArgsERKN5clang16CompilerInstanceERKSt6vectorINSt7__cxx1112basic_stringIcSt11char_traitsIcESaIcEEESaISA_EE
ClazyPlugin.so:_ZN22MiniAstDumperASTActionC1Ev
ClazyPlugin.so:_ZN22MiniAstDumperASTActionC2Ev
ClazyPlugin.so:_ZN22QPropertyWithoutNotify17VisitMacroExpandsERKN5clang5TokenERKNS0_11SourceRangeEPKNS0_9MacroInfoE
ClazyPlugin.so:_ZN22QPropertyWithoutNotifyC1ERKNSt7__cxx1112basic_stringIcSt11char_traitsIcESaIcEEEP12ClazyContext
ClazyPlugin.so:_ZN22QPropertyWithoutNotifyC2ERKNSt7__cxx1112basic_stringIcSt11char_traitsIcESaIcEEEP12ClazyContext
ClazyPlugin.so:_ZN22RawEnvironmentFunction9VisitStmtEPN5clang4StmtE
ClazyPlugin.so:_ZN22RawEnvironmentFunctionC1ERKNSt7__cxx1112basic_stringIcSt11char_traitsIcESaIcEEEP12ClazyContext
ClazyPlugin.so:_ZN22RawEnvironmentFunctionC2ERKNSt7__cxx1112basic_stringIcSt11char_traitsIcESaIcEEEP12ClazyContext
ClazyPlugin.so:_ZN23ClazyAstMatcherCallbackC1EP9CheckBase
ClazyPlugin.so:_ZN23ClazyAstMatcherCallbackC2EP9CheckBase
ClazyPlugin.so:_ZN23QHashWithCharPointerKey9VisitDeclEPN5clang4DeclE
ClazyPlugin.so:_ZN23QHashWithCharPointerKeyC1ERKNSt7__cxx1112basic_stringIcSt11char_traitsIcESaIcEEEP12ClazyContext
ClazyPlugin.so:_ZN23QHashWithCharPointerKeyC2ERKNSt7__cxx1112basic_stringIcSt11char_traitsIcESaIcEEEP12ClazyContext
ClazyPlugin.so:_ZN23Qt6QLatin1StringCharToU13checkCTorExprEPN5clang4StmtEb
ClazyPlugin.so:_ZN23Qt6QLatin1StringCharToU15lookForLeftOverEPN5clang4StmtEb
ClazyPlugin.so:_ZN23Qt6QLatin1StringCharToU16buildReplacementB5cxx11EPN5clang4StmtERbbbi
ClazyPlugin.so:_ZN23Qt6QLatin1StringCharToU17VisitMacroExpandsERKN5clang5TokenERKNS0_11SourceRangeEPKNS0_9MacroInfoE
ClazyPlugin.so:_ZN23Qt6QLatin1StringCharToU21isInterestingCtorCallEPN5clang16CXXConstructExprEPK12ClazyContextb
ClazyPlugin.so:_ZN23Qt6QLatin1StringCharToU21warningAlreadyEmittedEN5clang14SourceLocationE
ClazyPlugin.so:_ZN23Qt6QLatin1StringCharToU9VisitStmtEPN5clang4StmtE
ClazyPlugin.so:_ZN23Qt6QLatin1StringCharToUC1ERKNSt7__cxx1112basic_stringIcSt11char_traitsIcESaIcEEEP12ClazyContext
ClazyPlugin.so:_ZN23Qt6QLatin1StringCharToUC2ERKNSt7__cxx1112basic_stringIcSt11char_traitsIcESaIcEEEP12ClazyContext
ClazyPlugin.so:_ZN23ReturningVoidExpression9VisitStmtEPN5clang4StmtE
ClazyPlugin.so:_ZN23ReturningVoidExpressionC1ERKNSt7__cxx1112basic_stringIcSt11char_traitsIcESaIcEEEP12ClazyContext
ClazyPlugin.so:_ZN23ReturningVoidExpressionC2ERKNSt7__cxx1112basic_stringIcSt11char_traitsIcESaIcEEEP12ClazyContext
ClazyPlugin.so:_ZN24ClazyStandaloneASTAction17CreateASTConsumerERN5clang16CompilerInstanceEN4llvm9StringRefE
ClazyPlugin.so:_ZN24ClazyStandaloneASTActionC1ERKNSt7__cxx1112basic_stringIcSt11char_traitsIcESaIcEEES7_S7_S7_RKSt6vectorIS5_SaIS5_EEi
ClazyPlugin.so:_ZN24ClazyStandaloneASTActionC2ERKNSt7__cxx1112basic_stringIcSt11char_traitsIcESaIcEEES7_S7_S7_RKSt6vectorIS5_SaIS5_EEi
ClazyPlugin.so:_ZN24UnusedNonTrivialVariable13handleVarDeclEPN5clang7VarDeclE
ClazyPlugin.so:_ZN24UnusedNonTrivialVariable9VisitStmtEPN5clang4StmtE
ClazyPlugin.so:_ZN24UnusedNonTrivialVariableC1ERKNSt7__cxx1112basic_stringIcSt11char_traitsIcESaIcEEEP12ClazyContext
ClazyPlugin.so:_ZN24UnusedNonTrivialVariableC2ERKNSt7__cxx1112basic_stringIcSt11char_traitsIcESaIcEEEP12ClazyContext
ClazyPlugin.so:_ZN25CtorMissingParentArgument9VisitDeclEPN5clang4DeclE
ClazyPlugin.so:_ZN25CtorMissingParentArgumentC1ERKNSt7__cxx1112basic_stringIcSt11char_traitsIcESaIcEEEP12ClazyContext
ClazyPlugin.so:_ZN25CtorMissingParentArgumentC2ERKNSt7__cxx1112basic_stringIcSt11char_traitsIcESaIcEEEP12ClazyContext
ClazyPlugin.so:_ZN25QRequiredResultCandidates9VisitDeclEPN5clang4DeclE
ClazyPlugin.so:_ZN25QRequiredResultCandidatesC1ERKNSt7__cxx1112basic_stringIcSt11char_traitsIcESaIcEEEP12ClazyContext
ClazyPlugin.so:_ZN25QRequiredResultCandidatesC2ERKNSt7__cxx1112basic_stringIcSt11char_traitsIcESaIcEEEP12ClazyContext
ClazyPlugin.so:_ZN26ClazyPreprocessorCallbacks12MacroDefinedERKN5clang5TokenEPKNS0_14MacroDirectiveE
ClazyPlugin.so:_ZN26ClazyPreprocessorCallbacks12MacroExpandsERKN5clang5TokenERKNS0_15MacroDefinitionENS0_11SourceRangeEPKNS0_9MacroArgsE
ClazyPlugin.so:_ZN26ClazyPreprocessorCallbacks18InclusionDirectiveEN5clang14SourceLocationERKNS0_5TokenEN4llvm9StringRefEbNS0_15CharSourceRangeEPKNS0_9FileEntryES6_S6_PKNS0_6ModuleENS0_6SrcMgr18CharacteristicKindE
ClazyPlugin.so:_ZN26ClazyPreprocessorCallbacks2IfEN5clang14SourceLocationENS0_11SourceRangeENS0_11PPCallbacks18ConditionValueKindE
ClazyPlugin.so:_ZN26ClazyPreprocessorCallbacks4ElifEN5clang14SourceLocationENS0_11SourceRangeENS0_11PPCallbacks18ConditionValueKindES1_
ClazyPlugin.so:_ZN26ClazyPreprocessorCallbacks4ElseEN5clang14SourceLocationES1_
ClazyPlugin.so:_ZN26ClazyPreprocessorCallbacks5EndifEN5clang14SourceLocationES1_
ClazyPlugin.so:_ZN26ClazyPreprocessorCallbacks5IfdefEN5clang14SourceLocationERKNS0_5TokenERKNS0_15MacroDefinitionE
ClazyPlugin.so:_ZN26ClazyPreprocessorCallbacks6IfndefEN5clang14SourceLocationERKNS0_5TokenERKNS0_15MacroDefinitionE
ClazyPlugin.so:_ZN26ClazyPreprocessorCallbacks7DefinedERKN5clang5TokenERKNS0_15MacroDefinitionENS0_11SourceRangeE
ClazyPlugin.so:_ZN26ClazyPreprocessorCallbacksC1EP9CheckBase
ClazyPlugin.so:_ZN26ClazyPreprocessorCallbacksC2EP9CheckBase
ClazyPlugin.so:_ZN26ReturningDataFromTemporary12handleReturnEPN5clang10ReturnStmtE
ClazyPlugin.so:_ZN26ReturningDataFromTemporary14handleDeclStmtEPN5clang8DeclStmtE
ClazyPlugin.so:_ZN26ReturningDataFromTemporary16handleMemberCallEPN5clang17CXXMemberCallExprEb
ClazyPlugin.so:_ZN26ReturningDataFromTemporary9VisitStmtEPN5clang4StmtE
ClazyPlugin.so:_ZN26ReturningDataFromTemporaryC1ERKNSt7__cxx1112basic_stringIcSt11char_traitsIcESaIcEEEP12ClazyContext
ClazyPlugin.so:_ZN26ReturningDataFromTemporaryC2ERKNSt7__cxx1112basic_stringIcSt11char_traitsIcESaIcEEEP12ClazyContext
ClazyPlugin.so:_ZN28AutoUnexpectedQStringBuilder9VisitDeclEPN5clang4DeclE
ClazyPlugin.so:_ZN28AutoUnexpectedQStringBuilder9VisitStmtEPN5clang4StmtE
ClazyPlugin.so:_ZN28AutoUnexpectedQStringBuilderC1ERKNSt7__cxx1112basic_stringIcSt11char_traitsIcESaIcEEEP12ClazyContext
ClazyPlugin.so:_ZN28AutoUnexpectedQStringBuilderC2ERKNSt7__cxx1112basic_stringIcSt11char_traitsIcESaIcEEEP12ClazyContext
ClazyPlugin.so:_ZN28QStringInsensitiveAllocation9VisitStmtEPN5clang4StmtE
ClazyPlugin.so:_ZN28QStringInsensitiveAllocationC1ERKNSt7__cxx1112basic_stringIcSt11char_traitsIcESaIcEEEP12ClazyContext
ClazyPlugin.so:_ZN28QStringInsensitiveAllocationC2ERKNSt7__cxx1112basic_stringIcSt11char_traitsIcESaIcEEEP12ClazyContext
ClazyPlugin.so:_ZN29HeapAllocatedSmallTrivialType9VisitDeclEPN5clang4DeclE
ClazyPlugin.so:_ZN29HeapAllocatedSmallTrivialTypeC1ERKNSt7__cxx1112basic_stringIcSt11char_traitsIcESaIcEEEP12ClazyContext
ClazyPlugin.so:_ZN29HeapAllocatedSmallTrivialTypeC2ERKNSt7__cxx1112basic_stringIcSt11char_traitsIcESaIcEEEP12ClazyContext
ClazyPlugin.so:_ZN29QVariantTemplateInstantiation9VisitStmtEPN5clang4StmtE
ClazyPlugin.so:_ZN29QVariantTemplateInstantiationC1ERKNSt7__cxx1112basic_stringIcSt11char_traitsIcESaIcEEEP12ClazyContext
ClazyPlugin.so:_ZN29QVariantTemplateInstantiationC2ERKNSt7__cxx1112basic_stringIcSt11char_traitsIcESaIcEEEP12ClazyContext
ClazyPlugin.so:_ZN31QStringComparisonToImplicitChar9VisitStmtEPN5clang4StmtE
ClazyPlugin.so:_ZN31QStringComparisonToImplicitCharC1ERKNSt7__cxx1112basic_stringIcSt11char_traitsIcESaIcEEEP12ClazyContext
ClazyPlugin.so:_ZN31QStringComparisonToImplicitCharC2ERKNSt7__cxx1112basic_stringIcSt11char_traitsIcESaIcEEEP12ClazyContext
ClazyPlugin.so:_ZN5Utils10copyAssignEPN5clang13CXXRecordDeclE
ClazyPlugin.so:_ZN5Utils10isReturnedEPN5clang4StmtEPKNS0_7VarDeclE
ClazyPlugin.so:_ZN5Utils12isAssignedToEPN5clang4StmtEPKNS0_7VarDeclE
ClazyPlugin.so:_ZN5Utils13rootBaseClassEPN5clang13CXXRecordDeclE
ClazyPlugin.so:_ZN5Utils14addressIsTakenERKN5clang16CompilerInstanceEPNS0_4StmtEPKNS0_9ValueDeclE
ClazyPlugin.so:_ZN5Utils14filenameForLocB5cxx11EN5clang14SourceLocationERKNS0_13SourceManagerE
ClazyPlugin.so:_ZN5Utils14insideCTORCallEPN5clang9ParentMapEPNS0_4StmtERKSt6vectorIN4llvm9StringRefESaIS7_EE
ClazyPlugin.so:_ZN5Utils14isAssignedFromEPN5clang4StmtEPKNS0_7VarDeclE
ClazyPlugin.so:_ZN5Utils15ctorInitializerEPN5clang18CXXConstructorDeclEPNS0_11ParmVarDeclE
ClazyPlugin.so:_ZN5Utils15isSharedPointerEPN5clang13CXXRecordDeclE
ClazyPlugin.so:_ZN5Utils15isWriteOperatorEPN5clang4StmtE
ClazyPlugin.so:_ZN5Utils15locForNextTokenEN5clang14SourceLocationERKNS0_13SourceManagerERKNS0_11LangOptionsE
ClazyPlugin.so:_ZN5Utils16callListForChainEPN5clang8CallExprE
ClazyPlugin.so:_ZN5Utils16hasConstexprCtorEPN5clang13CXXRecordDeclE
ClazyPlugin.so:_ZN5Utils16isAssignOperatorEPN5clang19CXXOperatorCallExprEN4llvm9StringRefES4_RKNS0_11LangOptionsE
ClazyPlugin.so:_ZN5Utils16isImplicitCastToEPN5clang4StmtERKNSt7__cxx1112basic_stringIcSt11char_traitsIcESaIcEEE
ClazyPlugin.so:_ZN5Utils16isMemberVariableEPN5clang9ValueDeclE
ClazyPlugin.so:_ZN5Utils17methodsFromStringEPKN5clang13CXXRecordDeclERKNSt7__cxx1112basic_stringIcSt11char_traitsIcESaIcEEE
ClazyPlugin.so:_ZN5Utils17recordFromVarDeclEPN5clang4DeclE
ClazyPlugin.so:_ZN5Utils17referencesVarDeclEPN5clang8DeclStmtEPNS0_7VarDeclE
ClazyPlugin.so:_ZN5Utils18functionParametersEPN5clang12FunctionDeclE
ClazyPlugin.so:_ZN5Utils18isPassedToFunctionERK13StmtBodyRangePKN5clang7VarDeclEb
ClazyPlugin.so:_ZN5Utils18namedCastInnerDeclEPN5clang16CXXNamedCastExprE
ClazyPlugin.so:_ZN5Utils18namedCastOuterDeclEPN5clang16CXXNamedCastExprE
ClazyPlugin.so:_ZN5Utils18userDefinedLiteralEPN5clang4StmtERKNSt7__cxx1112basic_stringIcSt11char_traitsIcESaIcEEERKNS0_11LangOptionsE
ClazyPlugin.so:_ZN5Utils19isInDerefExpressionEPN5clang4StmtEPNS0_9ParentMapE
ClazyPlugin.so:_ZN5Utils19recordForMemberCallEPN5clang17CXXMemberCallExprERNSt7__cxx1112basic_stringIcSt11char_traitsIcESaIcEEE
ClazyPlugin.so:_ZN5Utils20functionHasEmptyBodyEPN5clang12FunctionDeclE
ClazyPlugin.so:_ZN5Utils20isInsideOperatorCallEPN5clang9ParentMapEPNS0_4StmtERKSt6vectorIN4llvm9StringRefESaIS7_EE
ClazyPlugin.so:_ZN5Utils20valueDeclForCallExprEPN5clang8CallExprE
ClazyPlugin.so:_ZN5Utils21childsHaveSideEffectsEPN5clang4StmtE
ClazyPlugin.so:_ZN5Utils21containsStringLiteralEPN5clang4StmtEbi
ClazyPlugin.so:_ZN5Utils22presumedLocationsEqualERKN5clang11PresumedLocES3_
ClazyPlugin.so:_ZN5Utils22valueDeclForMemberCallEPN5clang17CXXMemberCallExprE
ClazyPlugin.so:_ZN5Utils23callHasDefaultArgumentsEPN5clang8CallExprE
ClazyPlugin.so:_ZN5Utils23isInitializedExternallyEPN5clang7VarDeclE
ClazyPlugin.so:_ZN5Utils24valueDeclForOperatorCallEPN5clang19CXXOperatorCallExprE
ClazyPlugin.so:_ZN5Utils26containsNonConstMemberCallEPN5clang9ParentMapEPNS0_4StmtEPKNS0_7VarDeclE
ClazyPlugin.so:_ZN5Utils27allChildrenMemberCallsConstEPN5clang4StmtE
ClazyPlugin.so:_ZN5Utils27ctorInitializerContainsMoveEPN5clang18CXXCtorInitializerE
ClazyPlugin.so:_ZN5Utils27ctorInitializerContainsMoveERKSt6vectorIPN5clang18CXXCtorInitializerESaIS3_EE
ClazyPlugin.so:_ZN5Utils27literalContainsEscapedBytesEPN5clang13StringLiteralERKNS0_13SourceManagerERKNS0_11LangOptionsE
ClazyPlugin.so:_ZN5Utils32ternaryOperatorIsOfStringLiteralEPN5clang19ConditionalOperatorE
ClazyPlugin.so:_ZN5Utils33templateSpecializationFromVarDeclEPN5clang4DeclE
ClazyPlugin.so:_ZN5Utils7isAsciiEPN5clang13StringLiteralE
ClazyPlugin.so:_ZN5Utils8copyCtorEPN5clang13CXXRecordDeclE
ClazyPlugin.so:_ZN5Utils9hasMemberEPN5clang13CXXRecordDeclERKNSt7__cxx1112basic_stringIcSt11char_traitsIcESaIcEEE
ClazyPlugin.so:_ZN5clazy11derivesFromEN5clang8QualTypeERKNSt7__cxx1112basic_stringIcSt11char_traitsIcESaIcEEE
ClazyPlugin.so:_ZN5clazy11derivesFromEPKN5clang13CXXRecordDeclERKNSt7__cxx1112basic_stringIcSt11char_traitsIcESaIcEEE
ClazyPlugin.so:_ZN5clazy11derivesFromEPKN5clang13CXXRecordDeclES3_PSt6vectorIPS1_SaIS5_EE
ClazyPlugin.so:_ZN5clazy12bodyFromLoopEPN5clang4StmtE
ClazyPlugin.so:_ZN5clazy12pmfFromUnaryEPN5clang13UnaryOperatorE
ClazyPlugin.so:_ZN5clazy12pmfFromUnaryEPN5clang4ExprE
ClazyPlugin.so:_ZN5clazy12qtContainersEv
ClazyPlugin.so:_ZN5clazy12templateDeclEPN5clang4DeclE
ClazyPlugin.so:_ZN5clazy13isQtContainerEN5clang8QualTypeE
ClazyPlugin.so:_ZN5clazy13isQtContainerEPKN5clang13CXXRecordDeclE
ClazyPlugin.so:_ZN5clazy14isJavaIteratorEPN5clang13CXXRecordDeclE
ClazyPlugin.so:_ZN5clazy14isJavaIteratorEPN5clang17CXXMemberCallExprE
ClazyPlugin.so:_ZN5clazy14isSmallTrivialEPK12ClazyContextN5clang8QualTypeE
ClazyPlugin.so:_ZN5clazy14pmfFromConnectEPN5clang8CallExprEi
ClazyPlugin.so:_ZN5clazy15contextsForDeclEPN5clang11DeclContextE
ClazyPlugin.so:_ZN5clazy15createInsertionEN5clang14SourceLocationERKNSt7__cxx1112basic_stringIcSt11char_traitsIcESaIcEEE
ClazyPlugin.so:_ZN5clazy15isAReserveClassEPN5clang13CXXRecordDeclE
ClazyPlugin.so:_ZN5clazy15isConvertibleToEPKN5clang4TypeES3_
ClazyPlugin.so:_ZN5clazy15locForNextTokenEPKN5clang10ASTContextENS0_14SourceLocationENS0_3tok9TokenKindE
ClazyPlugin.so:_ZN5clazy15qtCOWContainersEv
ClazyPlugin.so:_ZN5clazy15rangeForLiteralEPKN5clang10ASTContextEPNS0_13StringLiteralE
ClazyPlugin.so:_ZN5clazy16canTakeAddressOfEPN5clang13CXXMethodDeclEPNS0_11DeclContextERb
ClazyPlugin.so:_ZN5clazy16classifyQualTypeEPK12ClazyContextN5clang8QualTypeEPKNS3_7VarDeclERNS_22QualTypeClassificationEPNS3_4StmtE
ClazyPlugin.so:_ZN5clazy16detachingMethodsB5cxx11Ev
ClazyPlugin.so:_ZN5clazy16fixItRemoveTokenEPKN5clang10ASTContextEPNS0_4StmtEb
ClazyPlugin.so:_ZN5clazy16locForEndOfTokenEPKN5clang10ASTContextENS0_14SourceLocationEi
ClazyPlugin.so:_ZN5clazy17createReplacementEN5clang11SourceRangeERKNSt7__cxx1112basic_stringIcSt11char_traitsIcESaIcEEE
ClazyPlugin.so:_ZN5clazy17isQtIterableClassEN4llvm9StringRefE
ClazyPlugin.so:_ZN5clazy17isQtIterableClassEPN5clang13CXXRecordDeclE
ClazyPlugin.so:_ZN5clazy17simpleArgTypeNameB5cxx11EPN5clang12FunctionDeclEjRKNS0_11LangOptionsE
ClazyPlugin.so:_ZN5clazy18connectHasPMFStyleEPN5clang12FunctionDeclE
ClazyPlugin.so:_ZN5clazy19getQObjectBaseClassEPN5clang13CXXRecordDeclE
ClazyPlugin.so:_ZN5clazy20anyArgIsOfSimpleTypeEPN5clang12FunctionDeclERKNSt7__cxx1112basic_stringIcSt11char_traitsIcESaIcEEERKNS0_11LangOptionsE
ClazyPlugin.so:_ZN5clazy20containerDeclForLoopEPN5clang4StmtE
ClazyPlugin.so:_ZN5clazy20containerExprForLoopEPN5clang4StmtE
ClazyPlugin.so:_ZN5clazy20heapOrStackAllocatedEPN5clang4ExprERKNSt7__cxx1112basic_stringIcSt11char_traitsIcESaIcEEERKNS0_11LangOptionsERbSE_
ClazyPlugin.so:_ZN5clazy20isQtCOWIterableClassEPN5clang13CXXRecordDeclE
ClazyPlugin.so:_ZN5clazy20isQtCOWIterableClassERKNSt7__cxx1112basic_stringIcSt11char_traitsIcESaIcEEE
ClazyPlugin.so:_ZN5clazy20loopCanBeInterruptedEPN5clang4StmtERKNS0_13SourceManagerENS0_14SourceLocationE
ClazyPlugin.so:_ZN5clazy21getChildsIgnoreLambdaEPN5clang4StmtERSt6vectorIPNS0_17CXXMemberCallExprESaIS5_EEi
ClazyPlugin.so:_ZN5clazy22containerNeverDetachesEPKN5clang7VarDeclE13StmtBodyRange
ClazyPlugin.so:_ZN5clazy22insertParentMethodCallERKNSt7__cxx1112basic_stringIcSt11char_traitsIcESaIcEEEN5clang11SourceRangeERSt6vectorINS8_9FixItHintESaISB_EE
ClazyPlugin.so:_ZN5clazy22recordHasCtorWithParamEPN5clang13CXXRecordDeclERKNSt7__cxx1112basic_stringIcSt11char_traitsIcESaIcEEERbRi
ClazyPlugin.so:_ZN5clazy23anyArgIsOfAnySimpleTypeEPN5clang12FunctionDeclERKSt6vectorINSt7__cxx1112basic_stringIcSt11char_traitsIcESaIcEEESaIS9_EERKNS0_11LangOptionsE
ClazyPlugin.so:_ZN5clazy23getBestDynamicClassTypeEPN5clang4ExprE
ClazyPlugin.so:_ZN5clazy23getTemplateArgumentTypeEPN5clang31ClassTemplateSpecializationDeclEj
ClazyPlugin.so:_ZN5clazy24fixItReplaceWordWithWordEPKN5clang10ASTContextEPNS0_4StmtERKNSt7__cxx1112basic_stringIcSt11char_traitsIcESaIcEEESD_
ClazyPlugin.so:_ZN5clazy24isQtAssociativeContainerEN4llvm9StringRefE
ClazyPlugin.so:_ZN5clazy24isQtAssociativeContainerEPN5clang13CXXRecordDeclE
ClazyPlugin.so:_ZN5clazy24transformTwoCallsIntoOneEPKN5clang10ASTContextEPNS0_8CallExprEPNS0_17CXXMemberCallExprERKNSt7__cxx1112basic_stringIcSt11char_traitsIcESaIcEEERSt6vectorINS0_9FixItHintESaISH_EE
ClazyPlugin.so:_ZN5clazy25getTemplateArgumentsTypesEPN5clang13CXXMethodDeclE
ClazyPlugin.so:_ZN5clazy25getTemplateArgumentsTypesEPN5clang13CXXRecordDeclE
ClazyPlugin.so:_ZN5clazy26getMostNeededQualifiedNameB5cxx11ERKN5clang13SourceManagerEPNS0_13CXXMethodDeclEPNS0_11DeclContextENS0_14SourceLocationEb
ClazyPlugin.so:_ZN5clazy26getTemplateArgumentTypeStrB5cxx11EPN5clang31ClassTemplateSpecializationDeclEjRKNS0_11LangOptionsEb
ClazyPlugin.so:_ZN5clazy26transformTwoCallsIntoOneV2EPKN5clang10ASTContextEPNS0_17CXXMemberCallExprERKNSt7__cxx1112basic_stringIcSt11char_traitsIcESaIcEEERSt6vectorINS0_9FixItHintESaISF_EE
ClazyPlugin.so:_ZN5clazy27biggestSourceLocationInStmtERKN5clang13SourceManagerEPNS0_4StmtE
ClazyPlugin.so:_ZN5clazy37detachingMethodsWithConstCounterPartsB5cxx11Ev
ClazyPlugin.so:_ZN5clazy41insertParentMethodCallAroundStringLiteralEPKN5clang10ASTContextERKNSt7__cxx1112basic_stringIcSt11char_traitsIcESaIcEEEPNS0_13StringLiteralERSt6vectorINS0_9FixItHintESaISF_EE
ClazyPlugin.so:_ZN5clazy8isInLoopEPN5clang9ParentMapEPNS0_4StmtE
ClazyPlugin.so:_ZN5clazy9isConnectEPN5clang12FunctionDeclE
ClazyPlugin.so:_ZN5clazy9isQObjectEN5clang8QualTypeE
ClazyPlugin.so:_ZN5clazy9isQObjectEPKN5clang13CXXRecordDeclE
ClazyPlugin.so:_ZN6QEnums17VisitMacroExpandsERKN5clang5TokenERKNS0_11SourceRangeEPKNS0_9MacroInfoE
ClazyPlugin.so:_ZN6QEnumsC1ERKNSt7__cxx1112basic_stringIcSt11char_traitsIcESaIcEEEP12ClazyContext
ClazyPlugin.so:_ZN6QEnumsC2ERKNSt7__cxx1112basic_stringIcSt11char_traitsIcESaIcEEEP12ClazyContext
ClazyPlugin.so:_ZN7Foreach19containsDetachmentsEPN5clang4StmtEPNS0_9ValueDeclE
ClazyPlugin.so:_ZN7Foreach22checkBigTypeMissingRefEv
ClazyPlugin.so:_ZN7Foreach9VisitStmtEPN5clang4StmtE
ClazyPlugin.so:_ZN7ForeachC1ERKNSt7__cxx1112basic_stringIcSt11char_traitsIcESaIcEEEP12ClazyContext
ClazyPlugin.so:_ZN7ForeachC2ERKNSt7__cxx1112basic_stringIcSt11char_traitsIcESaIcEEEP12ClazyContext
ClazyPlugin.so:_ZN7QGetEnv9VisitStmtEPN5clang4StmtE
ClazyPlugin.so:_ZN7QGetEnvC1ERKNSt7__cxx1112basic_stringIcSt11char_traitsIcESaIcEEEP12ClazyContext
ClazyPlugin.so:_ZN7QGetEnvC2ERKNSt7__cxx1112basic_stringIcSt11char_traitsIcESaIcEEEP12ClazyContext
ClazyPlugin.so:_ZN8QtMacros10VisitIfdefEN5clang14SourceLocationERKNS0_5TokenE
ClazyPlugin.so:_ZN8QtMacros10checkIfDefERKN5clang5TokenENS0_14SourceLocationE
ClazyPlugin.so:_ZN8QtMacros12VisitDefinedERKN5clang5TokenERKNS0_11SourceRangeE
ClazyPlugin.so:_ZN8QtMacros17VisitMacroDefinedERKN5clang5TokenE
ClazyPlugin.so:_ZN8QtMacrosC1ERKNSt7__cxx1112basic_stringIcSt11char_traitsIcESaIcEEEP12ClazyContext
ClazyPlugin.so:_ZN8QtMacrosC2ERKNSt7__cxx1112basic_stringIcSt11char_traitsIcESaIcEEEP12ClazyContext
ClazyPlugin.so:_ZN9CheckBase10VisitEndifEN5clang14SourceLocationES1_
ClazyPlugin.so:_ZN9CheckBase10VisitIfdefEN5clang14SourceLocationERKNS0_5TokenE
ClazyPlugin.so:_ZN9CheckBase11VisitIfndefEN5clang14SourceLocationERKNS0_5TokenE
ClazyPlugin.so:_ZN9CheckBase11emitWarningEN5clang14SourceLocationENSt7__cxx1112basic_stringIcSt11char_traitsIcESaIcEEERKSt6vectorINS0_9FixItHintESaIS9_EEb
ClazyPlugin.so:_ZN9CheckBase11emitWarningEN5clang14SourceLocationERKNSt7__cxx1112basic_stringIcSt11char_traitsIcESaIcEEEb
ClazyPlugin.so:_ZN9CheckBase11emitWarningEPKN5clang4DeclERKNSt7__cxx1112basic_stringIcSt11char_traitsIcESaIcEEEb
ClazyPlugin.so:_ZN9CheckBase11emitWarningEPKN5clang4StmtERKNSt7__cxx1112basic_stringIcSt11char_traitsIcESaIcEEEb
ClazyPlugin.so:_ZN9CheckBase12VisitDefinedERKN5clang5TokenERKNS0_11SourceRangeE
ClazyPlugin.so:_ZN9CheckBase17VisitMacroDefinedERKN5clang5TokenE
ClazyPlugin.so:_ZN9CheckBase17VisitMacroExpandsERKN5clang5TokenERKNS0_11SourceRangeEPKNS0_9MacroInfoE
ClazyPlugin.so:_ZN9CheckBase17emitInternalErrorEN5clang14SourceLocationENSt7__cxx1112basic_stringIcSt11char_traitsIcESaIcEEE
ClazyPlugin.so:_ZN9CheckBase17reallyEmitWarningEN5clang14SourceLocationERKNSt7__cxx1112basic_stringIcSt11char_traitsIcESaIcEEERKSt6vectorINS0_9FixItHintESaISB_EE
ClazyPlugin.so:_ZN9CheckBase23VisitInclusionDirectiveEN5clang14SourceLocationERKNS0_5TokenEN4llvm9StringRefEbNS0_15CharSourceRangeEPKNS0_9FileEntryES6_S6_PKNS0_6ModuleENS0_6SrcMgr18CharacteristicKindE
ClazyPlugin.so:_ZN9CheckBase23queueManualFixitWarningEN5clang14SourceLocationERKNSt7__cxx1112basic_stringIcSt11char_traitsIcESaIcEEE
ClazyPlugin.so:_ZN9CheckBase27enablePreProcessorCallbacksEv
ClazyPlugin.so:_ZN9CheckBase7VisitIfEN5clang14SourceLocationENS0_11SourceRangeENS0_11PPCallbacks18ConditionValueKindE
ClazyPlugin.so:_ZN9CheckBase9VisitDeclEPN5clang4DeclE
ClazyPlugin.so:_ZN9CheckBase9VisitElifEN5clang14SourceLocationENS0_11SourceRangeENS0_11PPCallbacks18ConditionValueKindES1_
ClazyPlugin.so:_ZN9CheckBase9VisitElseEN5clang14SourceLocationES1_
ClazyPlugin.so:_ZN9CheckBase9VisitStmtEPN5clang4StmtE
ClazyPlugin.so:_ZN9CheckBaseC1ERKNSt7__cxx1112basic_stringIcSt11char_traitsIcESaIcEEEPK12ClazyContexti
ClazyPlugin.so:_ZN9CheckBaseC2ERKNSt7__cxx1112basic_stringIcSt11char_traitsIcESaIcEEEPK12ClazyContexti
ClazyPlugin.so:_ZN9CheckBaseD0Ev
ClazyPlugin.so:_ZN9CheckBaseD1Ev
ClazyPlugin.so:_ZN9CheckBaseD2Ev
ClazyPlugin.so:_ZN9PostEvent9VisitStmtEPN5clang4StmtE
ClazyPlugin.so:_ZN9PostEventC1ERKNSt7__cxx1112basic_stringIcSt11char_traitsIcESaIcEEEP12ClazyContext
ClazyPlugin.so:_ZN9PostEventC2ERKNSt7__cxx1112basic_stringIcSt11char_traitsIcESaIcEEEP12ClazyContext
ClazyPlugin.so:_ZN9RangeLoop19processForRangeLoopEPN5clang15CXXForRangeStmtE
ClazyPlugin.so:_ZN9RangeLoop30checkPassByConstRefCorrectnessEPN5clang15CXXForRangeStmtE
ClazyPlugin.so:_ZN9RangeLoop8islvalueEPN5clang4ExprERNS0_14SourceLocationE
ClazyPlugin.so:_ZN9RangeLoop9VisitStmtEPN5clang4StmtE
ClazyPlugin.so:_ZN9RangeLoopC1ERKNSt7__cxx1112basic_stringIcSt11char_traitsIcESaIcEEEP12ClazyContext
ClazyPlugin.so:_ZN9RangeLoopC2ERKNSt7__cxx1112basic_stringIcSt11char_traitsIcESaIcEEEP12ClazyContext
ClazyPlugin.so:_ZN9StaticPmf9VisitDeclEPN5clang4DeclE
ClazyPlugin.so:_ZN9StaticPmfC1ERKNSt7__cxx1112basic_stringIcSt11char_traitsIcESaIcEEEP12ClazyContext
ClazyPlugin.so:_ZN9StaticPmfC2ERKNSt7__cxx1112basic_stringIcSt11char_traitsIcESaIcEEEP12ClazyContext
ClazyPlugin.so:_ZNK10RuleOfBase13isBlacklistedEPN5clang13CXXRecordDeclE
ClazyPlugin.so:_ZNK12CheckManager11checkExistsERKNSt7__cxx1112basic_stringIcSt11char_traitsIcESaIcEEE
ClazyPlugin.so:_ZNK12CheckManager12checkForNameERKSt6vectorI15RegisteredCheckSaIS1_EERKNSt7__cxx1112basic_stringIcSt11char_traitsIcESaIcEEE
ClazyPlugin.so:_ZNK12CheckManager14checksAsErrorsB5cxx11Ev
ClazyPlugin.so:_ZNK12CheckManager14checksForLevelEi
ClazyPlugin.so:_ZNK12CheckManager15availableChecksE10CheckLevel
ClazyPlugin.so:_ZNK12CheckManager15availableFixItsERKNSt7__cxx1112basic_stringIcSt11char_traitsIcESaIcEEE
ClazyPlugin.so:_ZNK12CheckManager17checkNameForFixItERKNSt7__cxx1112basic_stringIcSt11char_traitsIcESaIcEEE
ClazyPlugin.so:_ZNK12CheckManager25requestedChecksThroughEnvERSt6vectorINSt7__cxx1112basic_stringIcSt11char_traitsIcESaIcEEESaIS6_EE
ClazyPlugin.so:_ZNK12CheckManager29checksForCommaSeparatedStringERKNSt7__cxx1112basic_stringIcSt11char_traitsIcESaIcEEE
ClazyPlugin.so:_ZNK12CheckManager29checksForCommaSeparatedStringERKNSt7__cxx1112basic_stringIcSt11char_traitsIcESaIcEEERSt6vectorIS5_SaIS5_EE
ClazyPlugin.so:_ZNK12ClazyContext17visitsAllTypedefsEv
ClazyPlugin.so:_ZNK12ClazyContext4isQtEv
ClazyPlugin.so:_ZNK13DetachingBase17isDetachingMethodEPN5clang13CXXMethodDeclENS_19DetachingMethodTypeE
ClazyPlugin.so:_ZNK13FixItExporter25IncludeInDiagnosticCountsEv
ClazyPlugin.so:_ZNK13ImplicitCasts11isBoolToIntEPN5clang12FunctionDeclE
ClazyPlugin.so:_ZNK13ImplicitCasts15isMacroToIgnoreEN5clang14SourceLocationE
ClazyPlugin.so:_ZNK13IncorrectEmit15hasEmitKeyboardEPN5clang17CXXMemberCallExprE
ClazyPlugin.so:_ZNK14ClazyASTAction20printRequestedChecksEv
ClazyPlugin.so:_ZNK14ClazyASTAction9PrintHelpERN4llvm11raw_ostreamE
ClazyPlugin.so:_ZNK15MissingTypeInfo21typeHasClassificationEN5clang8QualTypeE
ClazyPlugin.so:_ZNK15OldStyleConnect10isQPointerEPN5clang4ExprE
ClazyPlugin.so:_ZNK15OldStyleConnect13isPrivateSlotERKNSt7__cxx1112basic_stringIcSt11char_traitsIcESaIcEEE
ClazyPlugin.so:_ZNK15OldStyleConnect14isSignalOrSlotEN5clang14SourceLocationERNSt7__cxx1112basic_stringIcSt11char_traitsIcESaIcEEE
ClazyPlugin.so:_ZNK17ReserveCandidates13loopIsComplexEPN5clang4StmtERb
ClazyPlugin.so:_ZNK17ReserveCandidates15isInComplexLoopEPN5clang4StmtENS0_14SourceLocationEb
ClazyPlugin.so:_ZNK17ReserveCandidates16acceptsValueDeclEPN5clang9ValueDeclE
ClazyPlugin.so:_ZNK17ReserveCandidates18isReserveCandidateEPN5clang9ValueDeclEPNS0_4StmtEPNS0_8CallExprE
ClazyPlugin.so:_ZNK17ReserveCandidates19expressionIsComplexEPN5clang4ExprE
ClazyPlugin.so:_ZNK17ReserveCandidates20containerWasReservedEPN5clang9ValueDeclE
ClazyPlugin.so:_ZNK18DetachingTemporary17isDetachingMethodEPN5clang13CXXMethodDeclE
ClazyPlugin.so:_ZNK18SuppressionManager12isSuppressedERKNSt7__cxx1112basic_stringIcSt11char_traitsIcESaIcEEEN5clang14SourceLocationERKNS8_13SourceManagerERKNS8_11LangOptionsE
ClazyPlugin.so:_ZNK18SuppressionManager9parseFileEN5clang6FileIDERKNS0_13SourceManagerERKNS0_11LangOptionsE
ClazyPlugin.so:_ZNK19EmptyQStringliteral14maybeIgnoreUicEN5clang14SourceLocationE
ClazyPlugin.so:_ZNK19PreProcessorVisitor10hasIncludeERKNSt7__cxx1112basic_stringIcSt11char_traitsIcESaIcEEEb
ClazyPlugin.so:_ZNK19PreProcessorVisitor16getTokenSpellingB5cxx11ERKN5clang15MacroDefinitionE
ClazyPlugin.so:_ZNK19PreProcessorVisitor19endOfIncludeSectionEv
ClazyPlugin.so:_ZNK19StringRefCandidates26isConvertedToSomethingElseEPN5clang4StmtE
ClazyPlugin.so:_ZNK20InefficientQListBase20shouldIgnoreVariableEPN5clang7VarDeclE
ClazyPlugin.so:_ZNK21QPropertyTypeMismatch10typesMatchERKNSt7__cxx1112basic_stringIcSt11char_traitsIcESaIcEEEN5clang8QualTypeERS5_
ClazyPlugin.so:_ZNK21QPropertyTypeMismatch11cleanupTypeB5cxx11EN5clang8QualTypeEb
ClazyPlugin.so:_ZNK22AccessSpecifierManager12isScriptableEPKN5clang13CXXMethodDeclE
ClazyPlugin.so:_ZNK22AccessSpecifierManager21classDefinitionForLocEN5clang14SourceLocationE
ClazyPlugin.so:_ZNK22AccessSpecifierManager21qtAccessSpecifierTypeEPKN5clang13CXXMethodDeclE
ClazyPlugin.so:_ZNK22AccessSpecifierManager22firstLocationOfSectionEN5clang15AccessSpecifierEPNS0_13CXXRecordDeclE
ClazyPlugin.so:_ZNK22AccessSpecifierManager24qtAccessSpecifierTypeStrE21QtAccessSpecifierType
ClazyPlugin.so:_ZNK22FullyQualifiedMocTypes20typeIsFullyQualifiedEN5clang8QualTypeERNSt7__cxx1112basic_stringIcSt11char_traitsIcESaIcEEES8_
ClazyPlugin.so:_ZNK22FullyQualifiedMocTypes8isGadgetEPN5clang13CXXRecordDeclE
ClazyPlugin.so:_ZNK24UnusedNonTrivialVariable17isInterestingTypeEN5clang8QualTypeE
ClazyPlugin.so:_ZNK24UnusedNonTrivialVariable19isUninterestingTypeEPKN5clang13CXXRecordDeclE
ClazyPlugin.so:_ZNK9CheckBase11isOptionSetERKNSt7__cxx1112basic_stringIcSt11char_traitsIcESaIcEEE
ClazyPlugin.so:_ZNK9CheckBase16shouldIgnoreFileEN5clang14SourceLocationE
ClazyPlugin.so:_ZNK9CheckBase21warningAlreadyEmittedEN5clang14SourceLocationE
ClazyPlugin.so:_ZNK9CheckBase24manualFixitAlreadyQueuedEN5clang14SourceLocationE
ClazyPlugin.so:_ZNSt8__detail8_ScannerIcE18_M_eat_escape_ecmaEv
ClazyPlugin.so:_ZNSt8__detail8_ScannerIcE19_M_eat_escape_posixEv
